target datalayout = "e-m:e-p270:32:32-p271:32:32-p272:64:64-i64:64-i128:128-f80:128-n8:16:32:64-S128"
target triple = "x86_64-pc-linux-gnu"

%struct._object = type { %union.anon, ptr }
%union.anon = type { i64 }
%struct.gaobject = type { %struct._object, ptr, ptr, ptr, ptr, i8, ptr }

; Function Attrs: nounwind uwtable
define internal i64 @ga_hash(ptr noundef %0) #0 {
  %2 = alloca i64, align 8
  %3 = alloca ptr, align 8
  %4 = alloca ptr, align 8
  %5 = alloca i64, align 8
  %6 = alloca i32, align 4
  %7 = alloca i64, align 8
  store ptr %0, ptr %3, align 8, !tbaa !4
  call void @llvm.lifetime.start.p0(i64 8, ptr %4) #5
  %8 = load ptr, ptr %3, align 8, !tbaa !4
  store ptr %8, ptr %4, align 8, !tbaa !16
  call void @llvm.lifetime.start.p0(i64 8, ptr %5) #5
  %9 = load ptr, ptr %4, align 8, !tbaa !16
  %10 = getelementptr inbounds nuw %struct.gaobject, ptr %9, i32 0, i32 1
  %11 = load ptr, ptr %10, align 8, !tbaa !41
  %12 = call i64 @PyObject_Hash(ptr noundef %11)
  store i64 %12, ptr %5, align 8, !tbaa !9
  %13 = load i64, ptr %5, align 8, !tbaa !9
  %14 = icmp eq i64 %13, -1
  br i1 %14, label %15, label %16

15:                                               ; preds = %1
  store i64 -1, ptr %2, align 8
  store i32 1, ptr %6, align 4
  br label %29

16:                                               ; preds = %1
  call void @llvm.lifetime.start.p0(i64 8, ptr %7) #5
  %17 = load ptr, ptr %4, align 8, !tbaa !16
  %18 = getelementptr inbounds nuw %struct.gaobject, ptr %17, i32 0, i32 2
  %19 = load ptr, ptr %18, align 8, !tbaa !44
  %20 = call i64 @PyObject_Hash(ptr noundef %19)
  store i64 %20, ptr %7, align 8, !tbaa !9
  %21 = load i64, ptr %7, align 8, !tbaa !9
  %22 = icmp eq i64 %21, -1
  br i1 %22, label %23, label %24

23:                                               ; preds = %16
  store i64 -1, ptr %2, align 8
  store i32 1, ptr %6, align 4
  br label %28

24:                                               ; preds = %16
  %25 = load i64, ptr %5, align 8, !tbaa !9
  %26 = load i64, ptr %7, align 8, !tbaa !9
  %27 = xor i64 %25, %26
  store i64 %27, ptr %2, align 8
  store i32 1, ptr %6, align 4
  br label %28

28:                                               ; preds = %24, %23
  call void @llvm.lifetime.end.p0(i64 8, ptr %7) #5
  br label %29

29:                                               ; preds = %28, %15
  call void @llvm.lifetime.end.p0(i64 8, ptr %5) #5
  call void @llvm.lifetime.end.p0(i64 8, ptr %4) #5
  %30 = load i64, ptr %2, align 8
  ret i64 %30
}