; Function Attrs: nounwind uwtable
define internal i64 @ga_hash(ptr noundef readonly captures(none) %0) #0 {
  %2 = getelementptr inbounds nuw i8, ptr %0, i64 16
  %3 = load ptr, ptr %2, align 8, !tbaa !33
  %4 = tail call i64 @PyObject_Hash(ptr noundef %3) #5
  %5 = icmp eq i64 %4, -1
  br i1 %5, label %12, label %6

6:                                                ; preds = %1
  %7 = getelementptr inbounds nuw i8, ptr %0, i64 24
  %8 = load ptr, ptr %7, align 8, !tbaa !34
  %9 = tail call i64 @PyObject_Hash(ptr noundef %8) #5
  %10 = icmp eq i64 %9, -1
  %11 = xor i64 %9, %4
  %.1 = select i1 %10, i64 -1, i64 %11
  br label %12

12:                                               ; preds = %1, %6
  %.0 = phi i64 [ %.1, %6 ], [ -1, %1 ]
  ret i64 %.0
}